; Function Attrs: mustprogress nofree norecurse nosync nounwind willreturn memory(argmem: write) uwtable
define dso_local void @_ZN4node9inspector13SocketSessionC2EPNS0_21InspectorSocketServerEii(ptr nocapture noundef nonnull writeonly align 8 dereferenceable(20) %this, ptr nocapture readnone %server, i32 noundef %id, i32 noundef %server_port) unnamed_addr #8 align 2 {
entry:
  store i32 %id, ptr %this, align 8
  %ws_socket_ = getelementptr inbounds i8, ptr %this, i64 8
  store ptr null, ptr %ws_socket_, align 8
  %server_port_ = getelementptr inbounds i8, ptr %this, i64 16
  store i32 %server_port, ptr %server_port_, align 8
  ret void
}